target datalayout = "e-m:e-p270:32:32-p271:32:32-p272:64:64-i64:64-i128:128-f80:128-n8:16:32:64-S128"
target triple = "x86_64-pc-linux-gnu"

%struct._packet_info = type { ptr, ptr, i32, i32, %struct.nstime_t, %struct.nstime_t, %struct.nstime_t, i8, ptr, ptr, ptr, ptr, %struct._address, %struct._address, %struct._address, %struct._address, %struct._address, %struct._address, i32, ptr, i8, [3 x i8], %struct.anon, i32, i32, i32, i32, ptr, i8, ptr, ptr, i16, i16, i32, i32, i16, i32, i32, ptr, ptr, ptr, i8, i8, i16, i16, i16, i32, i16, i16, ptr, ptr, ptr, ptr, ptr, i32, i32 }
%struct.nstime_t = type { i64, i32 }
%struct._address = type { i32, i32, ptr, ptr }
%struct.anon = type { i8, [3 x i8] }
%struct.acdr_dissector_data_t = type { i8, i8, i16, i16, i8, i8, i16, i8, i8, i8 }

; Function Attrs: null_pointer_is_valid sspstrong uwtable
define internal i32 @dissect_acdr_event(ptr noundef %0, ptr noundef %1, ptr noundef %2, ptr noundef %3) #0 {
  %5 = alloca i32, align 4
  %6 = alloca ptr, align 8
  %7 = alloca ptr, align 8
  %8 = alloca ptr, align 8
  %9 = alloca ptr, align 8
  %10 = alloca i32, align 4
  %11 = alloca ptr, align 8
  %12 = alloca i32, align 4
  %13 = alloca i32, align 4
  store ptr %0, ptr %6, align 8
  store ptr %1, ptr %7, align 8
  store ptr %2, ptr %8, align 8
  store ptr %3, ptr %9, align 8
  call void @llvm.lifetime.start.p0(i64 4, ptr %10) #14
  store i32 0, ptr %10, align 4
  call void @llvm.lifetime.start.p0(i64 8, ptr %11) #14
  %14 = load ptr, ptr %9, align 8
  store ptr %14, ptr %11, align 8
  call void @llvm.lifetime.start.p0(i64 4, ptr %12) #14
  %15 = load ptr, ptr %7, align 8
  %16 = getelementptr inbounds nuw %struct._packet_info, ptr %15, i32 0, i32 24
  %17 = load i32, ptr %16, align 4
  store i32 %17, ptr %12, align 4
  %18 = load ptr, ptr %11, align 8
  %19 = icmp eq ptr %18, null
  br i1 %19, label %20, label %21

20:                                               ; preds = %4
  store i32 0, ptr %5, align 4
  store i32 1, ptr %13, align 4
  br label %39

21:                                               ; preds = %4
  %22 = load ptr, ptr %11, align 8
  %23 = getelementptr inbounds nuw %struct.acdr_dissector_data_t, ptr %22, i32 0, i32 1
  %24 = load i8, ptr %23, align 1
  %25 = zext i8 %24 to i32
  %26 = icmp sle i32 %25, 1
  br i1 %26, label %27, label %28

27:                                               ; preds = %21
  store i32 0, ptr %5, align 4
  store i32 1, ptr %13, align 4
  br label %39

28:                                               ; preds = %21
  %29 = load ptr, ptr %7, align 8
  %30 = getelementptr inbounds nuw %struct._packet_info, ptr %29, i32 0, i32 24
  store i32 2424, ptr %30, align 4
  %31 = load ptr, ptr %6, align 8
  %32 = load ptr, ptr %7, align 8
  %33 = load ptr, ptr %8, align 8
  %34 = call i32 @dissect_tpncp(ptr noundef %31, ptr noundef %32, ptr noundef %33, ptr noundef null)
  store i32 %34, ptr %10, align 4
  %35 = load i32, ptr %12, align 4
  %36 = load ptr, ptr %7, align 8
  %37 = getelementptr inbounds nuw %struct._packet_info, ptr %36, i32 0, i32 24
  store i32 %35, ptr %37, align 4
  %38 = load i32, ptr %10, align 4
  store i32 %38, ptr %5, align 4
  store i32 1, ptr %13, align 4
  br label %39

39:                                               ; preds = %28, %27, %20
  call void @llvm.lifetime.end.p0(i64 4, ptr %12) #14
  call void @llvm.lifetime.end.p0(i64 8, ptr %11) #14
  call void @llvm.lifetime.end.p0(i64 4, ptr %10) #14
  %40 = load i32, ptr %5, align 4
  ret i32 %40
}