; Function Attrs: null_pointer_is_valid sspstrong uwtable
define internal i32 @dissect_acdr_event(ptr noundef %0, ptr noundef %1, ptr noundef %2, ptr noundef readonly captures(address_is_null) %3) #0 {
  %5 = getelementptr inbounds nuw i8, ptr %1, i64 284
  %6 = load i32, ptr %5, align 4
  %7 = icmp eq ptr %3, null
  br i1 %7, label %14, label %8

8:                                                ; preds = %4
  %9 = getelementptr inbounds nuw i8, ptr %3, i64 1
  %10 = load i8, ptr %9, align 1
  %11 = icmp ult i8 %10, 2
  br i1 %11, label %14, label %12

12:                                               ; preds = %8
  store i32 2424, ptr %5, align 4
  %13 = tail call i32 @dissect_tpncp(ptr noundef %0, ptr noundef %1, ptr noundef %2, ptr poison)
  store i32 %6, ptr %5, align 4
  br label %14

14:                                               ; preds = %8, %4, %12
  %.0 = phi i32 [ %13, %12 ], [ 0, %4 ], [ 0, %8 ]
  ret i32 %.0
}